Certificate:
    Data:
        Version: 3 (0x2)
        Serial Number: 4096 (0x1000)
    Signature Algorithm: sha1WithRSAEncryption
        Issuer: C=AU, ST=Some-State, O=Internet Widgits Pty Ltd, CN=ElasticSearch CA
        Validity
            Not Before: Jul 13 17:21:01 2012 GMT
            Not After : Jun 19 17:21:01 2112 GMT
        Subject: C=AU, ST=Some-State, O=Internet Widgits Pty Ltd, CN=node1
        Subject Public Key Info:
            Public Key Algorithm: rsaEncryption
                Public-Key: (1024 bit)
                Modulus:
                    00:e4:e2:1d:af:bf:fd:22:47:fb:9b:c9:a8:0d:bd:
                    fd:06:fa:08:81:f4:d8:0b:2d:7c:d8:10:56:c4:33:
                    a6:bb:3c:40:fb:2e:9e:d9:76:1f:3e:bf:99:d1:ae:
                    e2:38:fe:5f:4a:02:f9:81:a8:12:a5:61:d3:44:b1:
                    7b:b2:58:7e:32:5e:c8:84:7a:23:f1:31:e5:52:19:
                    80:e0:06:5e:96:62:e9:76:98:cb:8c:73:42:06:43:
                    3c:9b:40:c5:c0:63:64:b2:cd:8c:73:cf:da:31:44:
                    c1:0a:4b:96:88:9a:6b:65:50:5d:35:a6:cb:35:f5:
                    1f:2d:45:83:64:42:27:40:c9
                Exponent: 65537 (0x10001)
        X509v3 extensions:
            X509v3 Basic Constraints: 
                CA:FALSE
            Netscape Comment: 
                OpenSSL Generated Certificate
            X509v3 Subject Key Identifier: 
                4E:E4:FB:BC:CA:A9:E9:83:91:3A:4B:46:06:1C:88:94:5B:1B:A5:FF
            X509v3 Authority Key Identifier: 
                keyid:EC:64:93:4C:C8:BC:66:48:79:43:C4:79:F3:20:19:BD:A8:2F:77:97

    Signature Algorithm: sha1WithRSAEncryption
         6d:83:c0:93:b7:29:6e:45:e0:7f:3e:98:fe:c8:31:a2:e7:a1:
         fa:83:07:ee:41:bb:51:9e:1b:53:6a:9f:19:54:7f:cd:d7:4c:
         c8:70:e2:89:d1:13:c6:9e:54:f4:d8:f7:6d:4f:64:96:c5:45:
         c3:86:95:9c:d7:37:ed:86:a7:ca:fa:ac:0d:2c:8e:ba:f4:77:
         b9:03:74:30:69:57:fb:a8:31:fa:b5:49:94:40:21:96:68:3b:
         7b:cd:ec:6c:88:95:9d:0e:8d:37:55:96:a6:b3:c3:7a:51:30:
         2f:2a:a9:6d:fa:e4:6d:cb:16:ce:d7:26:b8:e4:fc:4d:9e:33:
         92:05
-----BEGIN CERTIFICATE-----
MIICqTCCAhKgAwIBAgICEAAwDQYJKoZIhvcNAQEFBQAwYDELMAkGA1UEBhMCQVUx
EzARBgNVBAgMClNvbWUtU3RhdGUxITAfBgNVBAoMGEludGVybmV0IFdpZGdpdHMg
UHR5IEx0ZDEZMBcGA1UEAwwQRWxhc3RpY1NlYXJjaCBDQTAgFw0xMjA3MTMxNzIx
MDFaGA8yMTEyMDYxOTE3MjEwMVowVTELMAkGA1UEBhMCQVUxEzARBgNVBAgMClNv
bWUtU3RhdGUxITAfBgNVBAoMGEludGVybmV0IFdpZGdpdHMgUHR5IEx0ZDEOMAwG
A1UEAwwFbm9kZTEwgZ8wDQYJKoZIhvcNAQEBBQADgY0AMIGJAoGBAOTiHa+//SJH
+5vJqA29/Qb6CIH02AstfNgQVsQzprs8QPsuntl2Hz6/mdGu4jj+X0oC+YGoEqVh
00Sxe7JYfjJeyIR6I/Ex5VIZgOAGXpZi6XaYy4xzQgZDPJtAxcBjZLLNjHPP2jFE
wQpLloiaa2VQXTWmyzX1Hy1Fg2RCJ0DJAgMBAAGjezB5MAkGA1UdEwQCMAAwLAYJ
YIZIAYb4QgENBB8WHU9wZW5TU0wgR2VuZXJhdGVkIENlcnRpZmljYXRlMB0GA1Ud
DgQWBBRO5Pu8yqnpg5E6S0YGHIiUWxul/zAfBgNVHSMEGDAWgBTsZJNMyLxmSHlD
xHnzIBm9qC93lzANBgkqhkiG9w0BAQUFAAOBgQBtg8CTtyluReB/Ppj+yDGi56H6
gwfuQbtRnhtTap8ZVH/N10zIcOKJ0RPGnlT02PdtT2SWxUXDhpWc1zfthqfK+qwN
LI669He5A3QwaVf7qDH6tUmUQCGWaDt7zexsiJWdDo03VZams8N6UTAvKqlt+uRt
yxbO1ya45PxNnjOSBQ==
-----END CERTIFICATE-----
