Certificate:
    Data:
        Version: 3 (0x2)
        Serial Number: 4097 (0x1001)
    Signature Algorithm: sha1WithRSAEncryption
        Issuer: C=AU, ST=Some-State, O=Internet Widgits Pty Ltd, CN=ElasticSearch CA
        Validity
            Not Before: Jul 13 17:22:06 2012 GMT
            Not After : Jun 19 17:22:06 2112 GMT
        Subject: C=AU, ST=Some-State, O=Internet Widgits Pty Ltd, CN=node2
        Subject Public Key Info:
            Public Key Algorithm: rsaEncryption
                Public-Key: (1024 bit)
                Modulus:
                    00:be:67:65:b8:57:05:94:36:31:11:f6:e5:96:4f:
                    53:e3:5b:08:2f:ea:f2:79:bc:dd:be:05:fc:d4:76:
                    21:07:ae:c5:2b:47:68:8f:51:51:59:4f:80:92:d6:
                    e2:4c:93:55:84:7b:b6:0a:f7:99:40:53:79:af:7e:
                    1c:8d:a3:7c:85:d9:4d:15:4a:f0:ee:eb:a8:f2:79:
                    e0:25:fa:00:d6:ea:f3:53:c9:35:4e:95:8a:83:31:
                    52:1a:74:da:81:56:86:a7:71:9b:d6:34:52:e1:32:
                    96:6d:63:95:18:2f:70:0b:76:3e:90:ad:0c:61:c5:
                    af:9b:73:c2:11:4a:fe:e2:a3
                Exponent: 65537 (0x10001)
        X509v3 extensions:
            X509v3 Basic Constraints: 
                CA:FALSE
            Netscape Comment: 
                OpenSSL Generated Certificate
            X509v3 Subject Key Identifier: 
                4B:99:38:F1:D9:3C:30:6A:A4:79:CB:9E:9B:DD:80:3A:89:0C:FC:64
            X509v3 Authority Key Identifier: 
                keyid:EC:64:93:4C:C8:BC:66:48:79:43:C4:79:F3:20:19:BD:A8:2F:77:97

    Signature Algorithm: sha1WithRSAEncryption
         7d:5a:aa:e1:9a:76:e1:bb:fd:25:51:0c:8d:c8:65:9e:ee:35:
         46:67:d7:a4:5c:c1:76:c3:ec:f3:ef:63:81:53:cf:22:2a:9b:
         77:90:dd:1d:8d:3a:51:f1:3c:e1:a5:66:82:c9:78:b8:04:e8:
         58:8c:42:14:ad:10:29:31:37:2c:85:d5:dc:3e:a3:1f:53:1c:
         0f:4b:6d:d2:25:a0:15:f1:3d:09:93:5f:ee:ed:b7:c5:cd:ff:
         a4:20:e4:84:71:31:f8:57:41:d0:13:e1:9c:a7:70:b4:c5:b7:
         f3:cd:50:e9:fb:2b:16:47:97:e5:3c:de:0e:04:d7:a5:c8:7a:
         a4:14
-----BEGIN CERTIFICATE-----
MIICqTCCAhKgAwIBAgICEAEwDQYJKoZIhvcNAQEFBQAwYDELMAkGA1UEBhMCQVUx
EzARBgNVBAgMClNvbWUtU3RhdGUxITAfBgNVBAoMGEludGVybmV0IFdpZGdpdHMg
UHR5IEx0ZDEZMBcGA1UEAwwQRWxhc3RpY1NlYXJjaCBDQTAgFw0xMjA3MTMxNzIy
MDZaGA8yMTEyMDYxOTE3MjIwNlowVTELMAkGA1UEBhMCQVUxEzARBgNVBAgMClNv
bWUtU3RhdGUxITAfBgNVBAoMGEludGVybmV0IFdpZGdpdHMgUHR5IEx0ZDEOMAwG
A1UEAwwFbm9kZTIwgZ8wDQYJKoZIhvcNAQEBBQADgY0AMIGJAoGBAL5nZbhXBZQ2
MRH25ZZPU+NbCC/q8nm83b4F/NR2IQeuxStHaI9RUVlPgJLW4kyTVYR7tgr3mUBT
ea9+HI2jfIXZTRVK8O7rqPJ54CX6ANbq81PJNU6VioMxUhp02oFWhqdxm9Y0UuEy
lm1jlRgvcAt2PpCtDGHFr5tzwhFK/uKjAgMBAAGjezB5MAkGA1UdEwQCMAAwLAYJ
YIZIAYb4QgENBB8WHU9wZW5TU0wgR2VuZXJhdGVkIENlcnRpZmljYXRlMB0GA1Ud
DgQWBBRLmTjx2TwwaqR5y56b3YA6iQz8ZDAfBgNVHSMEGDAWgBTsZJNMyLxmSHlD
xHnzIBm9qC93lzANBgkqhkiG9w0BAQUFAAOBgQB9Wqrhmnbhu/0lUQyNyGWe7jVG
Z9ekXMF2w+zz72OBU88iKpt3kN0djTpR8TzhpWaCyXi4BOhYjEIUrRApMTcshdXc
PqMfUxwPS23SJaAV8T0Jk1/u7bfFzf+kIOSEcTH4V0HQE+Gcp3C0xbfzzVDp+ysW
R5flPN4OBNelyHqkFA==
-----END CERTIFICATE-----
